target datalayout = "e-m:e-p270:32:32-p271:32:32-p272:64:64-i64:64-i128:128-f80:128-n8:16:32:64-S128"
target triple = "x86_64-pc-linux-gnu"

%struct.JSValue = type { %union.JSValueUnion, i64 }
%union.JSValueUnion = type { double }

; Function Attrs: nounwind uwtable
define internal ptr @JS_ToCString(ptr noundef %0, i64 %1, i64 %2) #0 {
  %4 = alloca %struct.JSValue, align 8
  %5 = alloca ptr, align 8
  %6 = getelementptr inbounds { i64, i64 }, ptr %4, i32 0, i32 0
  store i64 %1, ptr %6, align 8
  %7 = getelementptr inbounds { i64, i64 }, ptr %4, i32 0, i32 1
  store i64 %2, ptr %7, align 8
  store ptr %0, ptr %5, align 8
  %8 = load ptr, ptr %5, align 8
  %9 = getelementptr inbounds { i64, i64 }, ptr %4, i32 0, i32 0
  %10 = load i64, ptr %9, align 8
  %11 = getelementptr inbounds { i64, i64 }, ptr %4, i32 0, i32 1
  %12 = load i64, ptr %11, align 8
  %13 = call ptr @JS_ToCStringLen2(ptr noundef %8, ptr noundef null, i64 %10, i64 %12, i32 noundef 0)
  ret ptr %13
}

; Function Attrs: nounwind uwtable
define internal { i64, i64 } @js_std_loadFile(ptr noundef %0, i64 %1, i64 %2, i32 noundef %3, ptr noundef %4) #0 {
  %6 = alloca %struct.JSValue, align 8
  %7 = alloca %struct.JSValue, align 8
  %8 = alloca ptr, align 8
  %9 = alloca i32, align 4
  %10 = alloca ptr, align 8
  %11 = alloca ptr, align 8
  %12 = alloca ptr, align 8
  %13 = alloca %struct.JSValue, align 8
  %14 = alloca i64, align 8
  %15 = alloca %struct.JSValue, align 8
  %16 = getelementptr inbounds { i64, i64 }, ptr %7, i32 0, i32 0
  store i64 %1, ptr %16, align 8
  %17 = getelementptr inbounds { i64, i64 }, ptr %7, i32 0, i32 1
  store i64 %2, ptr %17, align 8
  store ptr %0, ptr %8, align 8
  store i32 %3, ptr %9, align 4
  store ptr %4, ptr %10, align 8
  %18 = load ptr, ptr %8, align 8
  %19 = load ptr, ptr %10, align 8
  %20 = getelementptr %struct.JSValue, ptr %19, i64 0
  %21 = getelementptr inbounds { i64, i64 }, ptr %20, i32 0, i32 0
  %22 = load i64, ptr %21, align 8
  %23 = getelementptr inbounds { i64, i64 }, ptr %20, i32 0, i32 1
  %24 = load i64, ptr %23, align 8
  %25 = call ptr @JS_ToCString(ptr noundef %18, i64 %22, i64 %24)
  store ptr %25, ptr %12, align 8
  %26 = load ptr, ptr %12, align 8
  %27 = icmp ne ptr %26, null
  br i1 %27, label %31, label %28

28:                                               ; preds = %5
  %29 = getelementptr inbounds %struct.JSValue, ptr %6, i32 0, i32 0
  store i32 0, ptr %29, align 8
  %30 = getelementptr inbounds %struct.JSValue, ptr %6, i32 0, i32 1
  store i64 6, ptr %30, align 8
  br label %53

31:                                               ; preds = %5
  %32 = load ptr, ptr %8, align 8
  %33 = load ptr, ptr %12, align 8
  %34 = call ptr @js_load_file(ptr noundef %32, ptr noundef %14, ptr noundef %33)
  store ptr %34, ptr %11, align 8
  %35 = load ptr, ptr %8, align 8
  %36 = load ptr, ptr %12, align 8
  call void @JS_FreeCString(ptr noundef %35, ptr noundef %36)
  %37 = load ptr, ptr %11, align 8
  %38 = icmp ne ptr %37, null
  br i1 %38, label %42, label %39

39:                                               ; preds = %31
  %40 = getelementptr inbounds %struct.JSValue, ptr %6, i32 0, i32 0
  store i32 0, ptr %40, align 8
  %41 = getelementptr inbounds %struct.JSValue, ptr %6, i32 0, i32 1
  store i64 2, ptr %41, align 8
  br label %53

42:                                               ; preds = %31
  %43 = load ptr, ptr %8, align 8
  %44 = load ptr, ptr %11, align 8
  %45 = load i64, ptr %14, align 8
  %46 = call { i64, i64 } @JS_NewStringLen(ptr noundef %43, ptr noundef %44, i64 noundef %45)
  %47 = getelementptr inbounds { i64, i64 }, ptr %15, i32 0, i32 0
  %48 = extractvalue { i64, i64 } %46, 0
  store i64 %48, ptr %47, align 8
  %49 = getelementptr inbounds { i64, i64 }, ptr %15, i32 0, i32 1
  %50 = extractvalue { i64, i64 } %46, 1
  store i64 %50, ptr %49, align 8
  call void @llvm.memcpy.p0.p0.i64(ptr align 8 %13, ptr align 8 %15, i64 16, i1 false)
  %51 = load ptr, ptr %8, align 8
  %52 = load ptr, ptr %11, align 8
  call void @js_free(ptr noundef %51, ptr noundef %52)
  call void @llvm.memcpy.p0.p0.i64(ptr align 8 %6, ptr align 8 %13, i64 16, i1 false)
  br label %53

53:                                               ; preds = %42, %39, %28
  %54 = load { i64, i64 }, ptr %6, align 8
  ret { i64, i64 } %54
}